target datalayout = "e-m:e-p270:32:32-p271:32:32-p272:64:64-i64:64-i128:128-f80:128-n8:16:32:64-S128"
target triple = "x86_64-pc-linux-gnu"

%struct.raxStack = type { ptr, i64, i64, [32 x ptr], i32 }
%struct.raxIterator = type { i32, ptr, ptr, ptr, i64, i64, [128 x i8], ptr, %struct.raxStack, ptr }

; Function Attrs: nounwind uwtable
define dso_local i32 @raxIteratorAddChars(ptr noundef %0, ptr noundef %1, i64 noundef %2) #0 {
  %4 = alloca i32, align 4
  %5 = alloca ptr, align 8
  %6 = alloca ptr, align 8
  %7 = alloca i64, align 8
  %8 = alloca ptr, align 8
  %9 = alloca i64, align 8
  %10 = alloca i32, align 4
  store ptr %0, ptr %5, align 8, !tbaa !44
  store ptr %1, ptr %6, align 8, !tbaa !24
  store i64 %2, ptr %7, align 8, !tbaa !9
  %11 = load i64, ptr %7, align 8, !tbaa !9
  %12 = icmp eq i64 %11, 0
  br i1 %12, label %13, label %14

13:                                               ; preds = %3
  store i32 1, ptr %4, align 4
  br label %103

14:                                               ; preds = %3
  %15 = load ptr, ptr %5, align 8, !tbaa !44
  %16 = getelementptr inbounds nuw %struct.raxIterator, ptr %15, i32 0, i32 5
  %17 = load i64, ptr %16, align 8, !tbaa !51
  %18 = load ptr, ptr %5, align 8, !tbaa !44
  %19 = getelementptr inbounds nuw %struct.raxIterator, ptr %18, i32 0, i32 4
  %20 = load i64, ptr %19, align 8, !tbaa !49
  %21 = load i64, ptr %7, align 8, !tbaa !9
  %22 = add i64 %20, %21
  %23 = icmp ult i64 %17, %22
  br i1 %23, label %24, label %88

24:                                               ; preds = %14
  call void @llvm.lifetime.start.p0(i64 8, ptr %8) #13
  %25 = load ptr, ptr %5, align 8, !tbaa !44
  %26 = getelementptr inbounds nuw %struct.raxIterator, ptr %25, i32 0, i32 2
  %27 = load ptr, ptr %26, align 8, !tbaa !50
  %28 = load ptr, ptr %5, align 8, !tbaa !44
  %29 = getelementptr inbounds nuw %struct.raxIterator, ptr %28, i32 0, i32 6
  %30 = getelementptr inbounds [128 x i8], ptr %29, i64 0, i64 0
  %31 = icmp eq ptr %27, %30
  br i1 %31, label %32, label %33

32:                                               ; preds = %24
  br label %37

33:                                               ; preds = %24
  %34 = load ptr, ptr %5, align 8, !tbaa !44
  %35 = getelementptr inbounds nuw %struct.raxIterator, ptr %34, i32 0, i32 2
  %36 = load ptr, ptr %35, align 8, !tbaa !50
  br label %37

37:                                               ; preds = %33, %32
  %38 = phi ptr [ null, %32 ], [ %36, %33 ]
  store ptr %38, ptr %8, align 8, !tbaa !24
  call void @llvm.lifetime.start.p0(i64 8, ptr %9) #13
  %39 = load ptr, ptr %5, align 8, !tbaa !44
  %40 = getelementptr inbounds nuw %struct.raxIterator, ptr %39, i32 0, i32 4
  %41 = load i64, ptr %40, align 8, !tbaa !49
  %42 = load i64, ptr %7, align 8, !tbaa !9
  %43 = add i64 %41, %42
  %44 = mul i64 %43, 2
  store i64 %44, ptr %9, align 8, !tbaa !9
  %45 = load ptr, ptr %8, align 8, !tbaa !24
  %46 = load i64, ptr %9, align 8, !tbaa !9
  %47 = call ptr @zrealloc(ptr noundef %45, i64 noundef %46) #15
  %48 = load ptr, ptr %5, align 8, !tbaa !44
  %49 = getelementptr inbounds nuw %struct.raxIterator, ptr %48, i32 0, i32 2
  store ptr %47, ptr %49, align 8, !tbaa !50
  %50 = load ptr, ptr %5, align 8, !tbaa !44
  %51 = getelementptr inbounds nuw %struct.raxIterator, ptr %50, i32 0, i32 2
  %52 = load ptr, ptr %51, align 8, !tbaa !50
  %53 = icmp eq ptr %52, null
  br i1 %53, label %54, label %68

54:                                               ; preds = %37
  %55 = load ptr, ptr %8, align 8, !tbaa !24
  %56 = icmp ne ptr %55, null
  br i1 %56, label %61, label %57

57:                                               ; preds = %54
  %58 = load ptr, ptr %5, align 8, !tbaa !44
  %59 = getelementptr inbounds nuw %struct.raxIterator, ptr %58, i32 0, i32 6
  %60 = getelementptr inbounds [128 x i8], ptr %59, i64 0, i64 0
  br label %63

61:                                               ; preds = %54
  %62 = load ptr, ptr %8, align 8, !tbaa !24
  br label %63

63:                                               ; preds = %61, %57
  %64 = phi ptr [ %60, %57 ], [ %62, %61 ]
  %65 = load ptr, ptr %5, align 8, !tbaa !44
  %66 = getelementptr inbounds nuw %struct.raxIterator, ptr %65, i32 0, i32 2
  store ptr %64, ptr %66, align 8, !tbaa !50
  %67 = call ptr @__errno_location() #17
  store i32 12, ptr %67, align 4, !tbaa !5
  store i32 0, ptr %4, align 4
  store i32 1, ptr %10, align 4
  br label %85

68:                                               ; preds = %37
  %69 = load ptr, ptr %8, align 8, !tbaa !24
  %70 = icmp eq ptr %69, null
  br i1 %70, label %71, label %81

71:                                               ; preds = %68
  %72 = load ptr, ptr %5, align 8, !tbaa !44
  %73 = getelementptr inbounds nuw %struct.raxIterator, ptr %72, i32 0, i32 2
  %74 = load ptr, ptr %73, align 8, !tbaa !50
  %75 = load ptr, ptr %5, align 8, !tbaa !44
  %76 = getelementptr inbounds nuw %struct.raxIterator, ptr %75, i32 0, i32 6
  %77 = getelementptr inbounds [128 x i8], ptr %76, i64 0, i64 0
  %78 = load ptr, ptr %5, align 8, !tbaa !44
  %79 = getelementptr inbounds nuw %struct.raxIterator, ptr %78, i32 0, i32 4
  %80 = load i64, ptr %79, align 8, !tbaa !49
  call void @llvm.memcpy.p0.p0.i64(ptr align 1 %74, ptr align 8 %77, i64 %80, i1 false)
  br label %81

81:                                               ; preds = %71, %68
  %82 = load i64, ptr %9, align 8, !tbaa !9
  %83 = load ptr, ptr %5, align 8, !tbaa !44
  %84 = getelementptr inbounds nuw %struct.raxIterator, ptr %83, i32 0, i32 5
  store i64 %82, ptr %84, align 8, !tbaa !51
  store i32 0, ptr %10, align 4
  br label %85

85:                                               ; preds = %81, %63
  call void @llvm.lifetime.end.p0(i64 8, ptr %9) #13
  call void @llvm.lifetime.end.p0(i64 8, ptr %8) #13
  %86 = load i32, ptr %10, align 4
  switch i32 %86, label %105 [
    i32 0, label %87
    i32 1, label %103
  ]

87:                                               ; preds = %85
  br label %88

88:                                               ; preds = %87, %14
  %89 = load ptr, ptr %5, align 8, !tbaa !44
  %90 = getelementptr inbounds nuw %struct.raxIterator, ptr %89, i32 0, i32 2
  %91 = load ptr, ptr %90, align 8, !tbaa !50
  %92 = load ptr, ptr %5, align 8, !tbaa !44
  %93 = getelementptr inbounds nuw %struct.raxIterator, ptr %92, i32 0, i32 4
  %94 = load i64, ptr %93, align 8, !tbaa !49
  %95 = getelementptr inbounds nuw i8, ptr %91, i64 %94
  %96 = load ptr, ptr %6, align 8, !tbaa !24
  %97 = load i64, ptr %7, align 8, !tbaa !9
  call void @llvm.memmove.p0.p0.i64(ptr align 1 %95, ptr align 1 %96, i64 %97, i1 false)
  %98 = load i64, ptr %7, align 8, !tbaa !9
  %99 = load ptr, ptr %5, align 8, !tbaa !44
  %100 = getelementptr inbounds nuw %struct.raxIterator, ptr %99, i32 0, i32 4
  %101 = load i64, ptr %100, align 8, !tbaa !49
  %102 = add i64 %101, %98
  store i64 %102, ptr %100, align 8, !tbaa !49
  store i32 1, ptr %4, align 4
  br label %103

103:                                              ; preds = %88, %85, %13
  %104 = load i32, ptr %4, align 4
  ret i32 %104

105:                                              ; preds = %85
  unreachable
}