; Function Attrs: nounwind uwtable
define dso_local range(i32 0, 2) i32 @raxIteratorAddChars(ptr noundef %0, ptr noundef readonly captures(none) %1, i64 noundef %2) local_unnamed_addr #1 {
  %4 = icmp eq i64 %2, 0
  br i1 %4, label %33, label %5

5:                                                ; preds = %3
  %6 = getelementptr inbounds nuw i8, ptr %0, i64 40
  %7 = load i64, ptr %6, align 8, !tbaa !39
  %8 = getelementptr inbounds nuw i8, ptr %0, i64 32
  %9 = load i64, ptr %8, align 8, !tbaa !37
  %10 = add i64 %9, %2
  %11 = icmp ult i64 %7, %10
  br i1 %11, label %12, label %26

12:                                               ; preds = %5
  %13 = getelementptr inbounds nuw i8, ptr %0, i64 16
  %14 = load ptr, ptr %13, align 8, !tbaa !38
  %15 = getelementptr inbounds nuw i8, ptr %0, i64 48
  %16 = icmp eq ptr %14, %15
  %spec.select = select i1 %16, ptr null, ptr %14
  %17 = shl i64 %10, 1
  %18 = tail call ptr @zrealloc(ptr noundef %spec.select, i64 noundef %17) #27
  store ptr %18, ptr %13, align 8, !tbaa !38
  %19 = icmp eq ptr %18, null
  %.not = icmp eq ptr %spec.select, null
  br i1 %19, label %23, label %20

20:                                               ; preds = %12
  br i1 %.not, label %21, label %.thread

21:                                               ; preds = %20
  %22 = load i64, ptr %8, align 8, !tbaa !37
  tail call void @llvm.memcpy.p0.p0.i64(ptr nonnull align 1 %18, ptr nonnull align 8 %15, i64 %22, i1 false)
  br label %.thread

.thread:                                          ; preds = %20, %21
  store i64 %17, ptr %6, align 8, !tbaa !39
  %.pre = load i64, ptr %8, align 8, !tbaa !37
  br label %26

23:                                               ; preds = %12
  %24 = select i1 %.not, ptr %15, ptr %spec.select
  store ptr %24, ptr %13, align 8, !tbaa !38
  %25 = tail call ptr @__errno_location() #29
  store i32 12, ptr %25, align 4, !tbaa !5
  br label %33

26:                                               ; preds = %.thread, %5
  %27 = phi i64 [ %.pre, %.thread ], [ %9, %5 ]
  %28 = getelementptr inbounds nuw i8, ptr %0, i64 16
  %29 = load ptr, ptr %28, align 8, !tbaa !38
  %30 = getelementptr inbounds nuw i8, ptr %29, i64 %27
  tail call void @llvm.memmove.p0.p0.i64(ptr align 1 %30, ptr align 1 %1, i64 %2, i1 false)
  %31 = load i64, ptr %8, align 8, !tbaa !37
  %32 = add i64 %31, %2
  store i64 %32, ptr %8, align 8, !tbaa !37
  br label %33

33:                                               ; preds = %23, %3, %26
  %.030 = phi i32 [ 0, %23 ], [ 1, %26 ], [ 1, %3 ]
  ret i32 %.030
}